Certificate:
    Data:
        Version: 3 (0x2)
        Serial Number:
            91:8e:30:60:10:36:86:73
    Signature Algorithm: sha1WithRSAEncryption
        Issuer: C=IT, ST=Torino, O=OrangeSec, OU=OrangeSec Team, CN=Cortana Proxy/emailAddress=theorangesec@gmail.com
        Validity
            Not Before: Dec 11 11:44:36 2014 GMT
            Not After : Dec 10 11:44:36 2017 GMT
        Subject: C=IT, ST=Torino, O=OrangeSec, OU=OrangeSec Team, CN=Cortana Proxy/emailAddress=theorangesec@gmail.com
        Subject Public Key Info:
            Public Key Algorithm: rsaEncryption
                Public-Key: (1024 bit)
                Modulus:
                    00:e2:c2:df:77:52:4d:92:c2:75:af:0f:08:fb:c0:
                    99:6c:50:25:fb:50:40:3d:95:8c:27:3b:e2:37:d9:
                    96:a3:fb:f7:da:dd:e9:d1:71:0f:01:0f:f4:ec:53:
                    89:55:cc:89:07:ec:40:67:4e:d8:e9:3d:52:02:04:
                    f0:01:68:66:b4:80:04:9d:a3:cd:aa:2c:f4:77:d0:
                    66:18:12:b7:e4:ff:42:cc:f2:c7:ef:54:87:d0:15:
                    02:a5:81:a5:86:3e:95:27:d8:33:08:c3:7b:70:6c:
                    05:8a:1d:fe:18:a1:a1:17:47:56:72:47:d5:76:98:
                    15:f6:57:31:cb:ac:bb:84:63
                Exponent: 65537 (0x10001)
        X509v3 extensions:
            X509v3 Subject Key Identifier: 
                3C:A6:06:C9:ED:11:DA:7F:E3:7F:C6:E0:25:25:C6:50:3C:F8:BD:B1
            X509v3 Authority Key Identifier: 
                keyid:3C:A6:06:C9:ED:11:DA:7F:E3:7F:C6:E0:25:25:C6:50:3C:F8:BD:B1

            X509v3 Basic Constraints: 
                CA:TRUE
    Signature Algorithm: sha1WithRSAEncryption
         26:60:65:b1:5e:e5:b8:92:4e:ce:f7:40:ab:d5:f7:ce:71:ae:
         df:40:5e:46:f5:1d:36:21:6c:ce:e8:d5:21:aa:d4:a1:e1:84:
         20:74:70:79:92:b9:ec:83:36:47:f6:fe:d0:49:76:0a:e9:31:
         d7:7c:fd:8e:a5:0d:fe:c0:81:b9:da:cb:1d:9c:b9:9c:57:8a:
         f9:f9:7e:50:cc:d7:92:9c:eb:43:34:10:b1:ee:52:6c:79:83:
         35:65:9a:50:56:92:83:8d:a7:a9:b5:ea:d0:ee:3b:69:0c:b3:
         67:37:44:55:32:68:b1:91:9c:ca:75:18:e1:57:00:8a:84:d3:
         b9:a9
-----BEGIN CERTIFICATE-----
MIIC5DCCAk2gAwIBAgIJAJGOMGAQNoZzMA0GCSqGSIb3DQEBBQUAMIGKMQswCQYD
VQQGEwJJVDEPMA0GA1UECAwGVG9yaW5vMRIwEAYDVQQKDAlPcmFuZ2VTZWMxFzAV
BgNVBAsMDk9yYW5nZVNlYyBUZWFtMRYwFAYDVQQDDA1Db3J0YW5hIFByb3h5MSUw
IwYJKoZIhvcNAQkBFhZ0aGVvcmFuZ2VzZWNAZ21haWwuY29tMB4XDTE0MTIxMTEx
NDQzNloXDTE3MTIxMDExNDQzNlowgYoxCzAJBgNVBAYTAklUMQ8wDQYDVQQIDAZU
b3Jpbm8xEjAQBgNVBAoMCU9yYW5nZVNlYzEXMBUGA1UECwwOT3JhbmdlU2VjIFRl
YW0xFjAUBgNVBAMMDUNvcnRhbmEgUHJveHkxJTAjBgkqhkiG9w0BCQEWFnRoZW9y
YW5nZXNlY0BnbWFpbC5jb20wgZ8wDQYJKoZIhvcNAQEBBQADgY0AMIGJAoGBAOLC
33dSTZLCda8PCPvAmWxQJftQQD2VjCc74jfZlqP799rd6dFxDwEP9OxTiVXMiQfs
QGdO2Ok9UgIE8AFoZrSABJ2jzaos9HfQZhgSt+T/Qszyx+9Uh9AVAqWBpYY+lSfY
MwjDe3BsBYod/hihoRdHVnJH1XaYFfZXMcusu4RjAgMBAAGjUDBOMB0GA1UdDgQW
BBQ8pgbJ7RHaf+N/xuAlJcZQPPi9sTAfBgNVHSMEGDAWgBQ8pgbJ7RHaf+N/xuAl
JcZQPPi9sTAMBgNVHRMEBTADAQH/MA0GCSqGSIb3DQEBBQUAA4GBACZgZbFe5biS
Ts73QKvV985xrt9AXkb1HTYhbM7o1SGq1KHhhCB0cHmSueyDNkf2/tBJdgrpMdd8
/Y6lDf7Agbnayx2cuZxXivn5flDM15Kc60M0ELHuUmx5gzVlmlBWkoONp6m16tDu
O2kMs2c3RFUyaLGRnMp1GOFXAIqE07mp
-----END CERTIFICATE-----
